target datalayout = "e-m:e-p270:32:32-p271:32:32-p272:64:64-i64:64-i128:128-f80:128-n8:16:32:64-S128"
target triple = "x86_64-pc-linux-gnu"

%struct.FFHWBaseEncodePicture = type { ptr, ptr, ptr, i64, i64, i64, i64, i32, ptr, ptr, i32, i32, i32, i32, ptr, ptr, i32, i32, [16 x ptr], [2 x i32], [2 x [2 x ptr]], ptr, [2 x i32], [2 x i32] }

@.str = private unnamed_addr constant [30 x i8] c"Assertion %s failed at %s:%d\0A\00", align 1
@.str.2 = private unnamed_addr constant [28 x i8] c"libavcodec/hw_base_encode.c\00", align 1
@.str.34 = private unnamed_addr constant [16 x i8] c"pic->refs[0][i]\00", align 1
@.str.35 = private unnamed_addr constant [39 x i8] c"pic->refs[0][i]->ref_count[level] >= 0\00", align 1
@.str.36 = private unnamed_addr constant [16 x i8] c"pic->refs[1][i]\00", align 1
@.str.37 = private unnamed_addr constant [39 x i8] c"pic->refs[1][i]->ref_count[level] >= 0\00", align 1
@.str.38 = private unnamed_addr constant [12 x i8] c"pic->dpb[i]\00", align 1
@.str.39 = private unnamed_addr constant [35 x i8] c"pic->dpb[i]->ref_count[level] >= 0\00", align 1
@.str.40 = private unnamed_addr constant [49 x i8] c"pic->prev || pic->type == FF_HW_PICTURE_TYPE_IDR\00", align 1
@.str.41 = private unnamed_addr constant [33 x i8] c"pic->prev->ref_count[level] >= 0\00", align 1

; Function Attrs: nounwind uwtable
define internal void @hw_base_encode_remove_refs(ptr noundef %0, i32 noundef %1) #0 {
  %3 = alloca ptr, align 8
  %4 = alloca i32, align 4
  %5 = alloca i32, align 4
  %6 = alloca i32, align 4
  store ptr %0, ptr %3, align 8, !tbaa !11
  store i32 %1, ptr %4, align 4, !tbaa !15
  call void @llvm.lifetime.start.p0(i64 4, ptr %5) #7
  %7 = load ptr, ptr %3, align 8, !tbaa !11
  %8 = getelementptr inbounds nuw %struct.FFHWBaseEncodePicture, ptr %7, i32 0, i32 23
  %9 = load i32, ptr %4, align 4, !tbaa !15
  %10 = sext i32 %9 to i64
  %11 = getelementptr inbounds [2 x i32], ptr %8, i64 0, i64 %10
  %12 = load i32, ptr %11, align 4, !tbaa !15
  %13 = icmp ne i32 %12, 0
  br i1 %13, label %14, label %15

14:                                               ; preds = %2
  store i32 1, ptr %6, align 4
  br label %228

15:                                               ; preds = %2
  store i32 0, ptr %5, align 4, !tbaa !15
  br label %16

16:                                               ; preds = %68, %15
  %17 = load i32, ptr %5, align 4, !tbaa !15
  %18 = load ptr, ptr %3, align 8, !tbaa !11
  %19 = getelementptr inbounds nuw %struct.FFHWBaseEncodePicture, ptr %18, i32 0, i32 19
  %20 = getelementptr inbounds [2 x i32], ptr %19, i64 0, i64 0
  %21 = load i32, ptr %20, align 8, !tbaa !15
  %22 = icmp slt i32 %17, %21
  br i1 %22, label %23, label %71

23:                                               ; preds = %16
  br label %24

24:                                               ; preds = %23
  %25 = load ptr, ptr %3, align 8, !tbaa !11
  %26 = getelementptr inbounds nuw %struct.FFHWBaseEncodePicture, ptr %25, i32 0, i32 20
  %27 = getelementptr inbounds [2 x [2 x ptr]], ptr %26, i64 0, i64 0
  %28 = load i32, ptr %5, align 4, !tbaa !15
  %29 = sext i32 %28 to i64
  %30 = getelementptr inbounds [2 x ptr], ptr %27, i64 0, i64 %29
  %31 = load ptr, ptr %30, align 8, !tbaa !11
  %32 = icmp ne ptr %31, null
  br i1 %32, label %34, label %33

33:                                               ; preds = %24
  call void (ptr, i32, ptr, ...) @av_log(ptr noundef null, i32 noundef 0, ptr noundef @.str, ptr noundef @.str.34, ptr noundef @.str.2, i32 noundef 85)
  call void @abort() #8
  unreachable

34:                                               ; preds = %24
  br label %35

35:                                               ; preds = %34
  br label %36

36:                                               ; preds = %35
  %37 = load ptr, ptr %3, align 8, !tbaa !11
  %38 = getelementptr inbounds nuw %struct.FFHWBaseEncodePicture, ptr %37, i32 0, i32 20
  %39 = getelementptr inbounds [2 x [2 x ptr]], ptr %38, i64 0, i64 0
  %40 = load i32, ptr %5, align 4, !tbaa !15
  %41 = sext i32 %40 to i64
  %42 = getelementptr inbounds [2 x ptr], ptr %39, i64 0, i64 %41
  %43 = load ptr, ptr %42, align 8, !tbaa !11
  %44 = getelementptr inbounds nuw %struct.FFHWBaseEncodePicture, ptr %43, i32 0, i32 22
  %45 = load i32, ptr %4, align 4, !tbaa !15
  %46 = sext i32 %45 to i64
  %47 = getelementptr inbounds [2 x i32], ptr %44, i64 0, i64 %46
  %48 = load i32, ptr %47, align 4, !tbaa !15
  %49 = add nsw i32 %48, -1
  store i32 %49, ptr %47, align 4, !tbaa !15
  br label %50

50:                                               ; preds = %36
  %51 = load ptr, ptr %3, align 8, !tbaa !11
  %52 = getelementptr inbounds nuw %struct.FFHWBaseEncodePicture, ptr %51, i32 0, i32 20
  %53 = getelementptr inbounds [2 x [2 x ptr]], ptr %52, i64 0, i64 0
  %54 = load i32, ptr %5, align 4, !tbaa !15
  %55 = sext i32 %54 to i64
  %56 = getelementptr inbounds [2 x ptr], ptr %53, i64 0, i64 %55
  %57 = load ptr, ptr %56, align 8, !tbaa !11
  %58 = getelementptr inbounds nuw %struct.FFHWBaseEncodePicture, ptr %57, i32 0, i32 22
  %59 = load i32, ptr %4, align 4, !tbaa !15
  %60 = sext i32 %59 to i64
  %61 = getelementptr inbounds [2 x i32], ptr %58, i64 0, i64 %60
  %62 = load i32, ptr %61, align 4, !tbaa !15
  %63 = icmp sge i32 %62, 0
  br i1 %63, label %65, label %64

64:                                               ; preds = %50
  call void (ptr, i32, ptr, ...) @av_log(ptr noundef null, i32 noundef 0, ptr noundef @.str, ptr noundef @.str.35, ptr noundef @.str.2, i32 noundef 87)
  call void @abort() #8
  unreachable

65:                                               ; preds = %50
  br label %66

66:                                               ; preds = %65
  br label %67

67:                                               ; preds = %66
  br label %68

68:                                               ; preds = %67
  %69 = load i32, ptr %5, align 4, !tbaa !15
  %70 = add nsw i32 %69, 1
  store i32 %70, ptr %5, align 4, !tbaa !15
  br label %16, !llvm.loop !184

71:                                               ; preds = %16
  store i32 0, ptr %5, align 4, !tbaa !15
  br label %72

72:                                               ; preds = %124, %71
  %73 = load i32, ptr %5, align 4, !tbaa !15
  %74 = load ptr, ptr %3, align 8, !tbaa !11
  %75 = getelementptr inbounds nuw %struct.FFHWBaseEncodePicture, ptr %74, i32 0, i32 19
  %76 = getelementptr inbounds [2 x i32], ptr %75, i64 0, i64 1
  %77 = load i32, ptr %76, align 4, !tbaa !15
  %78 = icmp slt i32 %73, %77
  br i1 %78, label %79, label %127

79:                                               ; preds = %72
  br label %80

80:                                               ; preds = %79
  %81 = load ptr, ptr %3, align 8, !tbaa !11
  %82 = getelementptr inbounds nuw %struct.FFHWBaseEncodePicture, ptr %81, i32 0, i32 20
  %83 = getelementptr inbounds [2 x [2 x ptr]], ptr %82, i64 0, i64 1
  %84 = load i32, ptr %5, align 4, !tbaa !15
  %85 = sext i32 %84 to i64
  %86 = getelementptr inbounds [2 x ptr], ptr %83, i64 0, i64 %85
  %87 = load ptr, ptr %86, align 8, !tbaa !11
  %88 = icmp ne ptr %87, null
  br i1 %88, label %90, label %89

89:                                               ; preds = %80
  call void (ptr, i32, ptr, ...) @av_log(ptr noundef null, i32 noundef 0, ptr noundef @.str, ptr noundef @.str.36, ptr noundef @.str.2, i32 noundef 91)
  call void @abort() #8
  unreachable

90:                                               ; preds = %80
  br label %91

91:                                               ; preds = %90
  br label %92

92:                                               ; preds = %91
  %93 = load ptr, ptr %3, align 8, !tbaa !11
  %94 = getelementptr inbounds nuw %struct.FFHWBaseEncodePicture, ptr %93, i32 0, i32 20
  %95 = getelementptr inbounds [2 x [2 x ptr]], ptr %94, i64 0, i64 1
  %96 = load i32, ptr %5, align 4, !tbaa !15
  %97 = sext i32 %96 to i64
  %98 = getelementptr inbounds [2 x ptr], ptr %95, i64 0, i64 %97
  %99 = load ptr, ptr %98, align 8, !tbaa !11
  %100 = getelementptr inbounds nuw %struct.FFHWBaseEncodePicture, ptr %99, i32 0, i32 22
  %101 = load i32, ptr %4, align 4, !tbaa !15
  %102 = sext i32 %101 to i64
  %103 = getelementptr inbounds [2 x i32], ptr %100, i64 0, i64 %102
  %104 = load i32, ptr %103, align 4, !tbaa !15
  %105 = add nsw i32 %104, -1
  store i32 %105, ptr %103, align 4, !tbaa !15
  br label %106

106:                                              ; preds = %92
  %107 = load ptr, ptr %3, align 8, !tbaa !11
  %108 = getelementptr inbounds nuw %struct.FFHWBaseEncodePicture, ptr %107, i32 0, i32 20
  %109 = getelementptr inbounds [2 x [2 x ptr]], ptr %108, i64 0, i64 1
  %110 = load i32, ptr %5, align 4, !tbaa !15
  %111 = sext i32 %110 to i64
  %112 = getelementptr inbounds [2 x ptr], ptr %109, i64 0, i64 %111
  %113 = load ptr, ptr %112, align 8, !tbaa !11
  %114 = getelementptr inbounds nuw %struct.FFHWBaseEncodePicture, ptr %113, i32 0, i32 22
  %115 = load i32, ptr %4, align 4, !tbaa !15
  %116 = sext i32 %115 to i64
  %117 = getelementptr inbounds [2 x i32], ptr %114, i64 0, i64 %116
  %118 = load i32, ptr %117, align 4, !tbaa !15
  %119 = icmp sge i32 %118, 0
  br i1 %119, label %121, label %120

120:                                              ; preds = %106
  call void (ptr, i32, ptr, ...) @av_log(ptr noundef null, i32 noundef 0, ptr noundef @.str, ptr noundef @.str.37, ptr noundef @.str.2, i32 noundef 93)
  call void @abort() #8
  unreachable

121:                                              ; preds = %106
  br label %122

122:                                              ; preds = %121
  br label %123

123:                                              ; preds = %122
  br label %124

124:                                              ; preds = %123
  %125 = load i32, ptr %5, align 4, !tbaa !15
  %126 = add nsw i32 %125, 1
  store i32 %126, ptr %5, align 4, !tbaa !15
  br label %72, !llvm.loop !185

127:                                              ; preds = %72
  store i32 0, ptr %5, align 4, !tbaa !15
  br label %128

128:                                              ; preds = %176, %127
  %129 = load i32, ptr %5, align 4, !tbaa !15
  %130 = load ptr, ptr %3, align 8, !tbaa !11
  %131 = getelementptr inbounds nuw %struct.FFHWBaseEncodePicture, ptr %130, i32 0, i32 17
  %132 = load i32, ptr %131, align 4, !tbaa !175
  %133 = icmp slt i32 %129, %132
  br i1 %133, label %134, label %179

134:                                              ; preds = %128
  br label %135

135:                                              ; preds = %134
  %136 = load ptr, ptr %3, align 8, !tbaa !11
  %137 = getelementptr inbounds nuw %struct.FFHWBaseEncodePicture, ptr %136, i32 0, i32 18
  %138 = load i32, ptr %5, align 4, !tbaa !15
  %139 = sext i32 %138 to i64
  %140 = getelementptr inbounds [16 x ptr], ptr %137, i64 0, i64 %139
  %141 = load ptr, ptr %140, align 8, !tbaa !11
  %142 = icmp ne ptr %141, null
  br i1 %142, label %144, label %143

143:                                              ; preds = %135
  call void (ptr, i32, ptr, ...) @av_log(ptr noundef null, i32 noundef 0, ptr noundef @.str, ptr noundef @.str.38, ptr noundef @.str.2, i32 noundef 97)
  call void @abort() #8
  unreachable

144:                                              ; preds = %135
  br label %145

145:                                              ; preds = %144
  br label %146

146:                                              ; preds = %145
  %147 = load ptr, ptr %3, align 8, !tbaa !11
  %148 = getelementptr inbounds nuw %struct.FFHWBaseEncodePicture, ptr %147, i32 0, i32 18
  %149 = load i32, ptr %5, align 4, !tbaa !15
  %150 = sext i32 %149 to i64
  %151 = getelementptr inbounds [16 x ptr], ptr %148, i64 0, i64 %150
  %152 = load ptr, ptr %151, align 8, !tbaa !11
  %153 = getelementptr inbounds nuw %struct.FFHWBaseEncodePicture, ptr %152, i32 0, i32 22
  %154 = load i32, ptr %4, align 4, !tbaa !15
  %155 = sext i32 %154 to i64
  %156 = getelementptr inbounds [2 x i32], ptr %153, i64 0, i64 %155
  %157 = load i32, ptr %156, align 4, !tbaa !15
  %158 = add nsw i32 %157, -1
  store i32 %158, ptr %156, align 4, !tbaa !15
  br label %159

159:                                              ; preds = %146
  %160 = load ptr, ptr %3, align 8, !tbaa !11
  %161 = getelementptr inbounds nuw %struct.FFHWBaseEncodePicture, ptr %160, i32 0, i32 18
  %162 = load i32, ptr %5, align 4, !tbaa !15
  %163 = sext i32 %162 to i64
  %164 = getelementptr inbounds [16 x ptr], ptr %161, i64 0, i64 %163
  %165 = load ptr, ptr %164, align 8, !tbaa !11
  %166 = getelementptr inbounds nuw %struct.FFHWBaseEncodePicture, ptr %165, i32 0, i32 22
  %167 = load i32, ptr %4, align 4, !tbaa !15
  %168 = sext i32 %167 to i64
  %169 = getelementptr inbounds [2 x i32], ptr %166, i64 0, i64 %168
  %170 = load i32, ptr %169, align 4, !tbaa !15
  %171 = icmp sge i32 %170, 0
  br i1 %171, label %173, label %172

172:                                              ; preds = %159
  call void (ptr, i32, ptr, ...) @av_log(ptr noundef null, i32 noundef 0, ptr noundef @.str, ptr noundef @.str.39, ptr noundef @.str.2, i32 noundef 99)
  call void @abort() #8
  unreachable

173:                                              ; preds = %159
  br label %174

174:                                              ; preds = %173
  br label %175

175:                                              ; preds = %174
  br label %176

176:                                              ; preds = %175
  %177 = load i32, ptr %5, align 4, !tbaa !15
  %178 = add nsw i32 %177, 1
  store i32 %178, ptr %5, align 4, !tbaa !15
  br label %128, !llvm.loop !186

179:                                              ; preds = %128
  br label %180

180:                                              ; preds = %179
  %181 = load ptr, ptr %3, align 8, !tbaa !11
  %182 = getelementptr inbounds nuw %struct.FFHWBaseEncodePicture, ptr %181, i32 0, i32 21
  %183 = load ptr, ptr %182, align 8, !tbaa !176
  %184 = icmp ne ptr %183, null
  br i1 %184, label %191, label %185

185:                                              ; preds = %180
  %186 = load ptr, ptr %3, align 8, !tbaa !11
  %187 = getelementptr inbounds nuw %struct.FFHWBaseEncodePicture, ptr %186, i32 0, i32 10
  %188 = load i32, ptr %187, align 8, !tbaa !17
  %189 = icmp eq i32 %188, 0
  br i1 %189, label %191, label %190

190:                                              ; preds = %185
  call void (ptr, i32, ptr, ...) @av_log(ptr noundef null, i32 noundef 0, ptr noundef @.str, ptr noundef @.str.40, ptr noundef @.str.2, i32 noundef 102)
  call void @abort() #8
  unreachable

191:                                              ; preds = %185, %180
  br label %192

192:                                              ; preds = %191
  br label %193

193:                                              ; preds = %192
  %194 = load ptr, ptr %3, align 8, !tbaa !11
  %195 = getelementptr inbounds nuw %struct.FFHWBaseEncodePicture, ptr %194, i32 0, i32 21
  %196 = load ptr, ptr %195, align 8, !tbaa !176
  %197 = icmp ne ptr %196, null
  br i1 %197, label %198, label %222

198:                                              ; preds = %193
  %199 = load ptr, ptr %3, align 8, !tbaa !11
  %200 = getelementptr inbounds nuw %struct.FFHWBaseEncodePicture, ptr %199, i32 0, i32 21
  %201 = load ptr, ptr %200, align 8, !tbaa !176
  %202 = getelementptr inbounds nuw %struct.FFHWBaseEncodePicture, ptr %201, i32 0, i32 22
  %203 = load i32, ptr %4, align 4, !tbaa !15
  %204 = sext i32 %203 to i64
  %205 = getelementptr inbounds [2 x i32], ptr %202, i64 0, i64 %204
  %206 = load i32, ptr %205, align 4, !tbaa !15
  %207 = add nsw i32 %206, -1
  store i32 %207, ptr %205, align 4, !tbaa !15
  br label %208

208:                                              ; preds = %198
  %209 = load ptr, ptr %3, align 8, !tbaa !11
  %210 = getelementptr inbounds nuw %struct.FFHWBaseEncodePicture, ptr %209, i32 0, i32 21
  %211 = load ptr, ptr %210, align 8, !tbaa !176
  %212 = getelementptr inbounds nuw %struct.FFHWBaseEncodePicture, ptr %211, i32 0, i32 22
  %213 = load i32, ptr %4, align 4, !tbaa !15
  %214 = sext i32 %213 to i64
  %215 = getelementptr inbounds [2 x i32], ptr %212, i64 0, i64 %214
  %216 = load i32, ptr %215, align 4, !tbaa !15
  %217 = icmp sge i32 %216, 0
  br i1 %217, label %219, label %218

218:                                              ; preds = %208
  call void (ptr, i32, ptr, ...) @av_log(ptr noundef null, i32 noundef 0, ptr noundef @.str, ptr noundef @.str.41, ptr noundef @.str.2, i32 noundef 105)
  call void @abort() #8
  unreachable

219:                                              ; preds = %208
  br label %220

220:                                              ; preds = %219
  br label %221

221:                                              ; preds = %220
  br label %222

222:                                              ; preds = %221, %193
  %223 = load ptr, ptr %3, align 8, !tbaa !11
  %224 = getelementptr inbounds nuw %struct.FFHWBaseEncodePicture, ptr %223, i32 0, i32 23
  %225 = load i32, ptr %4, align 4, !tbaa !15
  %226 = sext i32 %225 to i64
  %227 = getelementptr inbounds [2 x i32], ptr %224, i64 0, i64 %226
  store i32 1, ptr %227, align 4, !tbaa !15
  store i32 0, ptr %6, align 4
  br label %228

228:                                              ; preds = %222, %14
  call void @llvm.lifetime.end.p0(i64 4, ptr %5) #7
  %229 = load i32, ptr %6, align 4
  switch i32 %229, label %231 [
    i32 0, label %230
    i32 1, label %230
  ]

230:                                              ; preds = %228, %228
  ret void

231:                                              ; preds = %228
  unreachable
}