; Function Attrs: nounwind uwtable
define internal fastcc void @hw_base_encode_remove_refs(ptr noundef nonnull captures(none) %0, i32 noundef range(i32 0, 2) %1) unnamed_addr #1 {
  %3 = getelementptr inbounds nuw i8, ptr %0, i64 304
  %4 = zext nneg i32 %1 to i64
  %5 = getelementptr inbounds nuw [2 x i32], ptr %3, i64 0, i64 %4
  %6 = load i32, ptr %5, align 4, !tbaa !111
  %.not = icmp eq i32 %6, 0
  br i1 %.not, label %.preheader53, label %78

.preheader53:                                     ; preds = %2
  %7 = getelementptr inbounds nuw i8, ptr %0, i64 248
  %8 = load i32, ptr %7, align 8, !tbaa !111
  %9 = icmp sgt i32 %8, 0
  br i1 %9, label %.lr.ph, label %.preheader52

.lr.ph:                                           ; preds = %.preheader53
  %10 = getelementptr inbounds nuw i8, ptr %0, i64 256
  br label %19

11:                                               ; preds = %23
  %indvars.iv.next = add nuw nsw i64 %indvars.iv, 1
  %12 = load i32, ptr %7, align 8, !tbaa !111
  %13 = sext i32 %12 to i64
  %14 = icmp slt i64 %indvars.iv.next, %13
  br i1 %14, label %19, label %.preheader52, !llvm.loop !171

.preheader52:                                     ; preds = %11, %.preheader53
  %15 = getelementptr inbounds nuw i8, ptr %0, i64 252
  %16 = load i32, ptr %15, align 4, !tbaa !111
  %17 = icmp sgt i32 %16, 0
  br i1 %17, label %.lr.ph56, label %.preheader

.lr.ph56:                                         ; preds = %.preheader52
  %18 = getelementptr inbounds nuw i8, ptr %0, i64 272
  br label %38

19:                                               ; preds = %.lr.ph, %11
  %indvars.iv = phi i64 [ 0, %.lr.ph ], [ %indvars.iv.next, %11 ]
  %20 = getelementptr inbounds nuw [2 x ptr], ptr %10, i64 0, i64 %indvars.iv
  %21 = load ptr, ptr %20, align 8, !tbaa !60
  %.not51 = icmp eq ptr %21, null
  br i1 %.not51, label %22, label %23

22:                                               ; preds = %19
  tail call void (ptr, i32, ptr, ...) @av_log(ptr noundef null, i32 noundef 0, ptr noundef nonnull @.str, ptr noundef nonnull @.str.34, ptr noundef nonnull @.str.2, i32 noundef 85) #8
  tail call void @abort() #9
  unreachable

23:                                               ; preds = %19
  %24 = getelementptr inbounds nuw i8, ptr %21, i64 296
  %25 = getelementptr inbounds nuw [2 x i32], ptr %24, i64 0, i64 %4
  %26 = load i32, ptr %25, align 4, !tbaa !111
  %27 = add nsw i32 %26, -1
  store i32 %27, ptr %25, align 4, !tbaa !111
  %28 = icmp sgt i32 %26, 0
  br i1 %28, label %11, label %29

29:                                               ; preds = %23
  tail call void (ptr, i32, ptr, ...) @av_log(ptr noundef null, i32 noundef 0, ptr noundef nonnull @.str, ptr noundef nonnull @.str.35, ptr noundef nonnull @.str.2, i32 noundef 87) #8
  tail call void @abort() #9
  unreachable

30:                                               ; preds = %42
  %indvars.iv.next61 = add nuw nsw i64 %indvars.iv60, 1
  %31 = load i32, ptr %15, align 4, !tbaa !111
  %32 = sext i32 %31 to i64
  %33 = icmp slt i64 %indvars.iv.next61, %32
  br i1 %33, label %38, label %.preheader, !llvm.loop !172

.preheader:                                       ; preds = %30, %.preheader52
  %34 = getelementptr inbounds nuw i8, ptr %0, i64 116
  %35 = load i32, ptr %34, align 4, !tbaa !126
  %36 = icmp sgt i32 %35, 0
  br i1 %36, label %.lr.ph58, label %._crit_edge

.lr.ph58:                                         ; preds = %.preheader
  %37 = getelementptr inbounds nuw i8, ptr %0, i64 120
  br label %53

38:                                               ; preds = %.lr.ph56, %30
  %indvars.iv60 = phi i64 [ 0, %.lr.ph56 ], [ %indvars.iv.next61, %30 ]
  %39 = getelementptr inbounds nuw [2 x ptr], ptr %18, i64 0, i64 %indvars.iv60
  %40 = load ptr, ptr %39, align 8, !tbaa !60
  %.not50 = icmp eq ptr %40, null
  br i1 %.not50, label %41, label %42

41:                                               ; preds = %38
  tail call void (ptr, i32, ptr, ...) @av_log(ptr noundef null, i32 noundef 0, ptr noundef nonnull @.str, ptr noundef nonnull @.str.36, ptr noundef nonnull @.str.2, i32 noundef 91) #8
  tail call void @abort() #9
  unreachable

42:                                               ; preds = %38
  %43 = getelementptr inbounds nuw i8, ptr %40, i64 296
  %44 = getelementptr inbounds nuw [2 x i32], ptr %43, i64 0, i64 %4
  %45 = load i32, ptr %44, align 4, !tbaa !111
  %46 = add nsw i32 %45, -1
  store i32 %46, ptr %44, align 4, !tbaa !111
  %47 = icmp sgt i32 %45, 0
  br i1 %47, label %30, label %48

48:                                               ; preds = %42
  tail call void (ptr, i32, ptr, ...) @av_log(ptr noundef null, i32 noundef 0, ptr noundef nonnull @.str, ptr noundef nonnull @.str.37, ptr noundef nonnull @.str.2, i32 noundef 93) #8
  tail call void @abort() #9
  unreachable

49:                                               ; preds = %57
  %indvars.iv.next64 = add nuw nsw i64 %indvars.iv63, 1
  %50 = load i32, ptr %34, align 4, !tbaa !126
  %51 = sext i32 %50 to i64
  %52 = icmp slt i64 %indvars.iv.next64, %51
  br i1 %52, label %53, label %._crit_edge, !llvm.loop !173

53:                                               ; preds = %.lr.ph58, %49
  %indvars.iv63 = phi i64 [ 0, %.lr.ph58 ], [ %indvars.iv.next64, %49 ]
  %54 = getelementptr inbounds nuw [16 x ptr], ptr %37, i64 0, i64 %indvars.iv63
  %55 = load ptr, ptr %54, align 8, !tbaa !60
  %.not49 = icmp eq ptr %55, null
  br i1 %.not49, label %56, label %57

56:                                               ; preds = %53
  tail call void (ptr, i32, ptr, ...) @av_log(ptr noundef null, i32 noundef 0, ptr noundef nonnull @.str, ptr noundef nonnull @.str.38, ptr noundef nonnull @.str.2, i32 noundef 97) #8
  tail call void @abort() #9
  unreachable

57:                                               ; preds = %53
  %58 = getelementptr inbounds nuw i8, ptr %55, i64 296
  %59 = getelementptr inbounds nuw [2 x i32], ptr %58, i64 0, i64 %4
  %60 = load i32, ptr %59, align 4, !tbaa !111
  %61 = add nsw i32 %60, -1
  store i32 %61, ptr %59, align 4, !tbaa !111
  %62 = icmp sgt i32 %60, 0
  br i1 %62, label %49, label %63

63:                                               ; preds = %57
  tail call void (ptr, i32, ptr, ...) @av_log(ptr noundef null, i32 noundef 0, ptr noundef nonnull @.str, ptr noundef nonnull @.str.39, ptr noundef nonnull @.str.2, i32 noundef 99) #8
  tail call void @abort() #9
  unreachable

._crit_edge:                                      ; preds = %49, %.preheader
  %64 = getelementptr inbounds nuw i8, ptr %0, i64 288
  %65 = load ptr, ptr %64, align 8, !tbaa !130
  %.not47 = icmp eq ptr %65, null
  br i1 %.not47, label %66, label %71

66:                                               ; preds = %._crit_edge
  %67 = getelementptr inbounds nuw i8, ptr %0, i64 80
  %68 = load i32, ptr %67, align 8, !tbaa !4
  %69 = icmp eq i32 %68, 0
  br i1 %69, label %.thread, label %70

70:                                               ; preds = %66
  tail call void (ptr, i32, ptr, ...) @av_log(ptr noundef null, i32 noundef 0, ptr noundef nonnull @.str, ptr noundef nonnull @.str.40, ptr noundef nonnull @.str.2, i32 noundef 102) #8
  tail call void @abort() #9
  unreachable

71:                                               ; preds = %._crit_edge
  %72 = getelementptr inbounds nuw i8, ptr %65, i64 296
  %73 = getelementptr inbounds nuw [2 x i32], ptr %72, i64 0, i64 %4
  %74 = load i32, ptr %73, align 4, !tbaa !111
  %75 = add nsw i32 %74, -1
  store i32 %75, ptr %73, align 4, !tbaa !111
  %76 = icmp sgt i32 %74, 0
  br i1 %76, label %.thread, label %77

77:                                               ; preds = %71
  tail call void (ptr, i32, ptr, ...) @av_log(ptr noundef null, i32 noundef 0, ptr noundef nonnull @.str, ptr noundef nonnull @.str.41, ptr noundef nonnull @.str.2, i32 noundef 105) #8
  tail call void @abort() #9
  unreachable

.thread:                                          ; preds = %66, %71
  store i32 1, ptr %5, align 4, !tbaa !111
  br label %78

78:                                               ; preds = %2, %.thread
  ret void
}